target datalayout = "e-m:e-p270:32:32-p271:32:32-p272:64:64-i64:64-i128:128-f80:128-n8:16:32:64-S128"
target triple = "x86_64-pc-linux-gnu"

%struct.nghttp2_session = type { %struct.nghttp2_map, %struct.nghttp2_outbound_queue, %struct.nghttp2_outbound_queue, %struct.nghttp2_outbound_queue, [8 x %struct.anon], %struct.nghttp2_active_outbound_item, %struct.nghttp2_inbound_frame, %struct.nghttp2_hd_deflater, %struct.nghttp2_hd_inflater, %struct.nghttp2_session_callbacks, %struct.nghttp2_mem, ptr, ptr, %struct.nghttp2_ratelim, i64, i64, i64, i64, i64, i64, i64, i64, i64, i64, i64, i64, i64, i64, i32, i32, i32, i32, i32, i32, i32, i32, i32, i32, i32, i32, i8, %struct.nghttp2_settings_storage, %struct.nghttp2_settings_storage, i32, i32, i32, i8, i8, i8, i8, i8, i8, [32 x i8] }
%struct.nghttp2_map = type { ptr, ptr, i64, i64 }
%struct.nghttp2_outbound_queue = type { ptr, ptr, i64 }
%struct.anon = type { %struct.nghttp2_pq }
%struct.nghttp2_pq = type { ptr, ptr, i64, i64, ptr }
%struct.nghttp2_active_outbound_item = type { ptr, %struct.nghttp2_bufs, i32 }
%struct.nghttp2_bufs = type { ptr, ptr, ptr, i64, i64, i64, i64, i64 }
%struct.nghttp2_inbound_frame = type { %union.nghttp2_frame, %union.nghttp2_ext_frame_payload, ptr, %struct.nghttp2_buf, %struct.nghttp2_buf, ptr, i64, i64, i64, i64, i32, [32 x i8] }
%union.nghttp2_frame = type { %struct.nghttp2_headers }
%struct.nghttp2_headers = type { %struct.nghttp2_frame_hd, i64, %struct.nghttp2_priority_spec, ptr, i64, i32 }
%struct.nghttp2_frame_hd = type { i64, i32, i8, i8, i8 }
%struct.nghttp2_priority_spec = type { i32, i32, i8 }
%union.nghttp2_ext_frame_payload = type { %struct.nghttp2_ext_altsvc }
%struct.nghttp2_ext_altsvc = type { ptr, i64, ptr, i64 }
%struct.nghttp2_buf = type { ptr, ptr, ptr, ptr, ptr }
%struct.nghttp2_hd_deflater = type { %struct.nghttp2_hd_context, %struct.nghttp2_hd_map, i64, i64, i8 }
%struct.nghttp2_hd_context = type { %struct.nghttp2_hd_ringbuf, ptr, i64, i64, i32, i8 }
%struct.nghttp2_hd_ringbuf = type { ptr, i64, i64, i64 }
%struct.nghttp2_hd_map = type { [128 x ptr] }
%struct.nghttp2_hd_inflater = type { %struct.nghttp2_hd_context, %struct.nghttp2_hd_huff_decode_context, %struct.nghttp2_buf, %struct.nghttp2_buf, ptr, ptr, ptr, ptr, i64, i64, i64, i64, i64, i32, i32, i8, i8, i8 }
%struct.nghttp2_hd_huff_decode_context = type { i16 }
%struct.nghttp2_session_callbacks = type { ptr, ptr, ptr, ptr, ptr, ptr, ptr, ptr, ptr, ptr, ptr, ptr, ptr, ptr, ptr, ptr, ptr, ptr, ptr, ptr, ptr, ptr, ptr, ptr, ptr, ptr, ptr, ptr }
%struct.nghttp2_mem = type { ptr, ptr, ptr, ptr, ptr }
%struct.nghttp2_ratelim = type { i64, i64, i64, i64 }
%struct.nghttp2_settings_storage = type { i32, i32, i32, i32, i32, i32, i32, i32 }
%struct.nghttp2_outbound_item = type { %union.nghttp2_frame, %union.nghttp2_ext_frame_payload, %union.nghttp2_aux_data, i64, ptr, i8 }
%union.nghttp2_aux_data = type { %struct.nghttp2_headers_aux_data }
%struct.nghttp2_headers_aux_data = type { %struct.nghttp2_data_provider_wrap, ptr, i32, i8 }
%struct.nghttp2_data_provider_wrap = type { i32, %union.anon }
%union.anon = type { %struct.anon.0 }
%struct.anon.0 = type { %union.nghttp2_data_source, ptr }
%union.nghttp2_data_source = type { ptr }
%struct.nghttp2_ext_aux_data = type { i8 }
%struct.nghttp2_extension = type { %struct.nghttp2_frame_hd, ptr }

; Function Attrs: nounwind uwtable
define i32 @nghttp2_submit_priority_update(ptr noundef %0, i8 noundef zeroext %1, i32 noundef %2, ptr noundef %3, i64 noundef %4) #0 {
  %6 = alloca i32, align 4
  %7 = alloca ptr, align 8
  %8 = alloca i8, align 1
  %9 = alloca i32, align 4
  %10 = alloca ptr, align 8
  %11 = alloca i64, align 8
  %12 = alloca ptr, align 8
  %13 = alloca ptr, align 8
  %14 = alloca ptr, align 8
  %15 = alloca ptr, align 8
  %16 = alloca ptr, align 8
  %17 = alloca ptr, align 8
  %18 = alloca i32, align 4
  %19 = alloca i32, align 4
  store ptr %0, ptr %7, align 8, !tbaa !3
  store i8 %1, ptr %8, align 1, !tbaa !13
  store i32 %2, ptr %9, align 4, !tbaa !8
  store ptr %3, ptr %10, align 8, !tbaa !43
  store i64 %4, ptr %11, align 8, !tbaa !11
  call void @llvm.lifetime.start.p0(i64 8, ptr %12) #7
  call void @llvm.lifetime.start.p0(i64 8, ptr %13) #7
  call void @llvm.lifetime.start.p0(i64 8, ptr %14) #7
  call void @llvm.lifetime.start.p0(i64 8, ptr %15) #7
  call void @llvm.lifetime.start.p0(i64 8, ptr %16) #7
  call void @llvm.lifetime.start.p0(i64 8, ptr %17) #7
  call void @llvm.lifetime.start.p0(i64 4, ptr %18) #7
  %20 = load ptr, ptr %7, align 8, !tbaa !3
  %21 = getelementptr inbounds nuw %struct.nghttp2_session, ptr %20, i32 0, i32 10
  store ptr %21, ptr %12, align 8, !tbaa !10
  %22 = load ptr, ptr %7, align 8, !tbaa !3
  %23 = getelementptr inbounds nuw %struct.nghttp2_session, ptr %22, i32 0, i32 49
  %24 = load i8, ptr %23, align 1, !tbaa !16
  %25 = icmp ne i8 %24, 0
  br i1 %25, label %26, label %27

26:                                               ; preds = %5
  store i32 -519, ptr %6, align 4
  store i32 1, ptr %19, align 4
  br label %97

27:                                               ; preds = %5
  %28 = load ptr, ptr %7, align 8, !tbaa !3
  %29 = getelementptr inbounds nuw %struct.nghttp2_session, ptr %28, i32 0, i32 41
  %30 = getelementptr inbounds nuw %struct.nghttp2_settings_storage, ptr %29, i32 0, i32 7
  %31 = load i32, ptr %30, align 4, !tbaa !61
  %32 = icmp eq i32 %31, 0
  br i1 %32, label %33, label %34

33:                                               ; preds = %27
  store i32 0, ptr %6, align 4
  store i32 1, ptr %19, align 4
  br label %97

34:                                               ; preds = %27
  %35 = load i32, ptr %9, align 4, !tbaa !8
  %36 = icmp eq i32 %35, 0
  br i1 %36, label %41, label %37

37:                                               ; preds = %34
  %38 = load i64, ptr %11, align 8, !tbaa !11
  %39 = add i64 4, %38
  %40 = icmp ugt i64 %39, 16384
  br i1 %40, label %41, label %42

41:                                               ; preds = %37, %34
  store i32 -501, ptr %6, align 4
  store i32 1, ptr %19, align 4
  br label %97

42:                                               ; preds = %37
  %43 = load i64, ptr %11, align 8, !tbaa !11
  %44 = icmp ne i64 %43, 0
  br i1 %44, label %45, label %59

45:                                               ; preds = %42
  %46 = load ptr, ptr %12, align 8, !tbaa !10
  %47 = load i64, ptr %11, align 8, !tbaa !11
  %48 = add i64 %47, 1
  %49 = call ptr @nghttp2_mem_malloc(ptr noundef %46, i64 noundef %48)
  store ptr %49, ptr %13, align 8, !tbaa !43
  %50 = load ptr, ptr %13, align 8, !tbaa !43
  %51 = icmp eq ptr %50, null
  br i1 %51, label %52, label %53

52:                                               ; preds = %45
  store i32 -901, ptr %6, align 4
  store i32 1, ptr %19, align 4
  br label %97

53:                                               ; preds = %45
  %54 = load ptr, ptr %13, align 8, !tbaa !43
  %55 = load ptr, ptr %10, align 8, !tbaa !43
  %56 = load i64, ptr %11, align 8, !tbaa !11
  %57 = call ptr @nghttp2_cpymem(ptr noundef %54, ptr noundef %55, i64 noundef %56)
  store ptr %57, ptr %14, align 8, !tbaa !43
  %58 = load ptr, ptr %14, align 8, !tbaa !43
  store i8 0, ptr %58, align 1, !tbaa !13
  br label %60

59:                                               ; preds = %42
  store ptr null, ptr %13, align 8, !tbaa !43
  br label %60

60:                                               ; preds = %59, %53
  %61 = load ptr, ptr %12, align 8, !tbaa !10
  %62 = call ptr @nghttp2_mem_malloc(ptr noundef %61, i64 noundef 160)
  store ptr %62, ptr %15, align 8, !tbaa !46
  %63 = load ptr, ptr %15, align 8, !tbaa !46
  %64 = icmp eq ptr %63, null
  br i1 %64, label %65, label %66

65:                                               ; preds = %60
  store i32 -901, ptr %18, align 4, !tbaa !8
  br label %94

66:                                               ; preds = %60
  %67 = load ptr, ptr %15, align 8, !tbaa !46
  call void @nghttp2_outbound_item_init(ptr noundef %67)
  %68 = load ptr, ptr %15, align 8, !tbaa !46
  %69 = getelementptr inbounds nuw %struct.nghttp2_outbound_item, ptr %68, i32 0, i32 2
  %70 = getelementptr inbounds nuw %struct.nghttp2_ext_aux_data, ptr %69, i32 0, i32 0
  store i8 1, ptr %70, align 8, !tbaa !13
  %71 = load ptr, ptr %15, align 8, !tbaa !46
  %72 = getelementptr inbounds nuw %struct.nghttp2_outbound_item, ptr %71, i32 0, i32 1
  store ptr %72, ptr %17, align 8, !tbaa !10
  %73 = load ptr, ptr %15, align 8, !tbaa !46
  %74 = getelementptr inbounds nuw %struct.nghttp2_outbound_item, ptr %73, i32 0, i32 0
  store ptr %74, ptr %16, align 8, !tbaa !10
  %75 = load ptr, ptr %17, align 8, !tbaa !10
  %76 = load ptr, ptr %16, align 8, !tbaa !10
  %77 = getelementptr inbounds nuw %struct.nghttp2_extension, ptr %76, i32 0, i32 1
  store ptr %75, ptr %77, align 8, !tbaa !13
  %78 = load ptr, ptr %16, align 8, !tbaa !10
  %79 = load i32, ptr %9, align 4, !tbaa !8
  %80 = load ptr, ptr %13, align 8, !tbaa !43
  %81 = load i64, ptr %11, align 8, !tbaa !11
  call void @nghttp2_frame_priority_update_init(ptr noundef %78, i32 noundef %79, ptr noundef %80, i64 noundef %81)
  %82 = load ptr, ptr %7, align 8, !tbaa !3
  %83 = load ptr, ptr %15, align 8, !tbaa !46
  %84 = call i32 @nghttp2_session_add_item(ptr noundef %82, ptr noundef %83)
  store i32 %84, ptr %18, align 4, !tbaa !8
  %85 = load i32, ptr %18, align 4, !tbaa !8
  %86 = icmp ne i32 %85, 0
  br i1 %86, label %87, label %93

87:                                               ; preds = %66
  %88 = load ptr, ptr %16, align 8, !tbaa !10
  %89 = load ptr, ptr %12, align 8, !tbaa !10
  call void @nghttp2_frame_priority_update_free(ptr noundef %88, ptr noundef %89)
  %90 = load ptr, ptr %12, align 8, !tbaa !10
  %91 = load ptr, ptr %15, align 8, !tbaa !46
  call void @nghttp2_mem_free(ptr noundef %90, ptr noundef %91)
  %92 = load i32, ptr %18, align 4, !tbaa !8
  store i32 %92, ptr %6, align 4
  store i32 1, ptr %19, align 4
  br label %97

93:                                               ; preds = %66
  store i32 0, ptr %6, align 4
  store i32 1, ptr %19, align 4
  br label %97

94:                                               ; preds = %65
  %95 = load ptr, ptr %13, align 8, !tbaa !43
  call void @free(ptr noundef %95) #7
  %96 = load i32, ptr %18, align 4, !tbaa !8
  store i32 %96, ptr %6, align 4
  store i32 1, ptr %19, align 4
  br label %97

97:                                               ; preds = %94, %93, %87, %52, %41, %33, %26
  call void @llvm.lifetime.end.p0(i64 4, ptr %18) #7
  call void @llvm.lifetime.end.p0(i64 8, ptr %17) #7
  call void @llvm.lifetime.end.p0(i64 8, ptr %16) #7
  call void @llvm.lifetime.end.p0(i64 8, ptr %15) #7
  call void @llvm.lifetime.end.p0(i64 8, ptr %14) #7
  call void @llvm.lifetime.end.p0(i64 8, ptr %13) #7
  call void @llvm.lifetime.end.p0(i64 8, ptr %12) #7
  %98 = load i32, ptr %6, align 4
  ret i32 %98
}