; Function Attrs: nounwind uwtable
define i32 @nghttp2_submit_priority_update(ptr noundef %0, i8 noundef zeroext %1, i32 noundef %2, ptr noundef %3, i64 noundef %4) local_unnamed_addr #0 {
  %6 = getelementptr inbounds nuw i8, ptr %0, i64 2344
  %7 = getelementptr inbounds nuw i8, ptr %0, i64 2675
  %8 = load i8, ptr %7, align 1, !tbaa !39
  %.not = icmp eq i8 %8, 0
  br i1 %.not, label %9, label %34

9:                                                ; preds = %5
  %10 = getelementptr inbounds nuw i8, ptr %0, i64 2624
  %11 = load i32, ptr %10, align 4, !tbaa !54
  %12 = icmp eq i32 %11, 0
  br i1 %12, label %34, label %13

13:                                               ; preds = %9
  %14 = icmp eq i32 %2, 0
  %15 = add i64 %4, -16381
  %16 = icmp ult i64 %15, -16385
  %or.cond = or i1 %14, %16
  br i1 %or.cond, label %34, label %17

17:                                               ; preds = %13
  %.not41 = icmp eq i64 %4, 0
  br i1 %.not41, label %24, label %18

18:                                               ; preds = %17
  %19 = add nsw i64 %4, 1
  %20 = tail call ptr @nghttp2_mem_malloc(ptr noundef nonnull %6, i64 noundef %19) #8
  %21 = icmp eq ptr %20, null
  br i1 %21, label %34, label %22

22:                                               ; preds = %18
  %23 = tail call ptr @nghttp2_cpymem(ptr noundef nonnull %20, ptr noundef %3, i64 noundef %4) #8
  store i8 0, ptr %23, align 1, !tbaa !7
  br label %24

24:                                               ; preds = %17, %22
  %.035 = phi ptr [ %20, %22 ], [ null, %17 ]
  %25 = tail call ptr @nghttp2_mem_malloc(ptr noundef nonnull %6, i64 noundef 160) #8
  %26 = icmp eq ptr %25, null
  br i1 %26, label %27, label %28

27:                                               ; preds = %24
  tail call void @free(ptr noundef %.035) #8
  br label %34

28:                                               ; preds = %24
  tail call void @nghttp2_outbound_item_init(ptr noundef nonnull %25) #8
  %29 = getelementptr inbounds nuw i8, ptr %25, i64 96
  store i8 1, ptr %29, align 8, !tbaa !7
  %30 = getelementptr inbounds nuw i8, ptr %25, i64 64
  %31 = getelementptr inbounds nuw i8, ptr %25, i64 16
  store ptr %30, ptr %31, align 8, !tbaa !7
  tail call void @nghttp2_frame_priority_update_init(ptr noundef nonnull %25, i32 noundef %2, ptr noundef %.035, i64 noundef %4) #8
  %32 = tail call i32 @nghttp2_session_add_item(ptr noundef nonnull %0, ptr noundef nonnull %25) #8
  %.not42 = icmp eq i32 %32, 0
  br i1 %.not42, label %34, label %33

33:                                               ; preds = %28
  tail call void @nghttp2_frame_priority_update_free(ptr noundef nonnull %25, ptr noundef nonnull %6) #8
  tail call void @nghttp2_mem_free(ptr noundef nonnull %6, ptr noundef nonnull %25) #8
  br label %34

34:                                               ; preds = %28, %18, %13, %9, %5, %27, %33
  %.0 = phi i32 [ -901, %27 ], [ %32, %33 ], [ -519, %5 ], [ 0, %9 ], [ -501, %13 ], [ -901, %18 ], [ 0, %28 ]
  ret i32 %.0
}